; ModuleID = '19/391.c'
source_filename = "19/391.c"
target datalayout = "e-m:e-p270:32:32-p271:32:32-p272:64:64-i64:64-f80:128-n8:16:32:64-S128"
target triple = "x86_64-pc-linux-gnu"

; Function Attrs: noinline nounwind uwtable
define dso_local void @main() #0 {
  %1 = alloca [100 x i8], align 16
  %2 = alloca [100 x i8], align 16
  %3 = alloca [100 x i8], align 16
  %4 = alloca [100 x i8], align 16
  %5 = alloca [100 x i8], align 16
  %6 = alloca i32, align 4
  %7 = alloca i32, align 4
  %8 = alloca i32, align 4
  %9 = alloca i32, align 4
  %10 = alloca i32, align 4
  %11 = bitcast [100 x i8]* %1 to i8*
  call void @llvm.memset.p0i8.i64(i8* align 16 %11, i8 0, i64 100, i1 false)
  %12 = bitcast [100 x i8]* %2 to i8*
  call void @llvm.memset.p0i8.i64(i8* align 16 %12, i8 0, i64 100, i1 false)
  %13 = bitcast [100 x i8]* %3 to i8*
  call void @llvm.memset.p0i8.i64(i8* align 16 %13, i8 0, i64 100, i1 false)
  %14 = bitcast [100 x i8]* %4 to i8*
  call void @llvm.memset.p0i8.i64(i8* align 16 %14, i8 0, i64 100, i1 false)
  %15 = bitcast [100 x i8]* %5 to i8*
  call void @llvm.memset.p0i8.i64(i8* align 16 %15, i8 0, i64 100, i1 false)
  store i32 0, i32* %7, align 4
  %16 = getelementptr inbounds [100 x i8], [100 x i8]* %1, i64 0, i64 0
  %17 = call i32 (i8*, ...) bitcast (i32 (...)* @gets to i32 (i8*, ...)*)(i8* %16)
  %18 = getelementptr inbounds [100 x i8], [100 x i8]* %3, i64 0, i64 0
  %19 = call i32 (i8*, ...) bitcast (i32 (...)* @gets to i32 (i8*, ...)*)(i8* %18)
  %20 = getelementptr inbounds [100 x i8], [100 x i8]* %4, i64 0, i64 0
  %21 = call i32 (i8*, ...) bitcast (i32 (...)* @gets to i32 (i8*, ...)*)(i8* %20)
  %22 = getelementptr inbounds [100 x i8], [100 x i8]* %1, i64 0, i64 0
  %23 = call i64 @strlen(i8* %22) #5
  %24 = trunc i64 %23 to i32
  store i32 %24, i32* %9, align 4
  store i32 0, i32* %6, align 4
  br label %25

25:                                               ; preds = %162, %0
  %26 = load i32, i32* %6, align 4
  %27 = load i32, i32* %9, align 4
  %28 = icmp sle i32 %26, %27
  br i1 %28, label %29, label %165

29:                                               ; preds = %25
  %30 = getelementptr inbounds [100 x i8], [100 x i8]* %1, i64 0, i64 0
  %31 = load i32, i32* %6, align 4
  %32 = sext i32 %31 to i64
  %33 = getelementptr inbounds i8, i8* %30, i64 %32
  %34 = load i8, i8* %33, align 1
  %35 = sext i8 %34 to i32
  %36 = icmp ne i32 %35, 32
  br i1 %36, label %37, label %57

37:                                               ; preds = %29
  %38 = getelementptr inbounds [100 x i8], [100 x i8]* %1, i64 0, i64 0
  %39 = load i32, i32* %6, align 4
  %40 = sext i32 %39 to i64
  %41 = getelementptr inbounds i8, i8* %38, i64 %40
  %42 = load i8, i8* %41, align 1
  %43 = sext i8 %42 to i32
  %44 = icmp ne i32 %43, 0
  br i1 %44, label %45, label %57

45:                                               ; preds = %37
  %46 = getelementptr inbounds [100 x i8], [100 x i8]* %1, i64 0, i64 0
  %47 = load i32, i32* %6, align 4
  %48 = sext i32 %47 to i64
  %49 = getelementptr inbounds i8, i8* %46, i64 %48
  %50 = load i8, i8* %49, align 1
  %51 = getelementptr inbounds [100 x i8], [100 x i8]* %5, i64 0, i64 0
  %52 = load i32, i32* %7, align 4
  %53 = sext i32 %52 to i64
  %54 = getelementptr inbounds i8, i8* %51, i64 %53
  store i8 %50, i8* %54, align 1
  %55 = load i32, i32* %7, align 4
  %56 = add nsw i32 %55, 1
  store i32 %56, i32* %7, align 4
  br label %161

57:                                               ; preds = %37, %29
  store i32 0, i32* %7, align 4
  %58 = getelementptr inbounds [100 x i8], [100 x i8]* %5, i64 0, i64 0
  %59 = call i64 @strlen(i8* %58) #5
  %60 = trunc i64 %59 to i32
  store i32 %60, i32* %10, align 4
  %61 = getelementptr inbounds [100 x i8], [100 x i8]* %5, i64 0, i64 0
  %62 = getelementptr inbounds [100 x i8], [100 x i8]* %3, i64 0, i64 0
  %63 = call i32 @strcmp(i8* %61, i8* %62) #5
  %64 = icmp eq i32 %63, 0
  br i1 %64, label %65, label %146

65:                                               ; preds = %57
  %66 = load i32, i32* %6, align 4
  %67 = load i32, i32* %10, align 4
  %68 = sub nsw i32 %66, %67
  store i32 %68, i32* %8, align 4
  br label %69

69:                                               ; preds = %78, %65
  %70 = load i32, i32* %8, align 4
  %71 = load i32, i32* %6, align 4
  %72 = icmp slt i32 %70, %71
  br i1 %72, label %73, label %81

73:                                               ; preds = %69
  %74 = getelementptr inbounds [100 x i8], [100 x i8]* %1, i64 0, i64 0
  %75 = load i32, i32* %8, align 4
  %76 = sext i32 %75 to i64
  %77 = getelementptr inbounds i8, i8* %74, i64 %76
  store i8 0, i8* %77, align 1
  br label %78

78:                                               ; preds = %73
  %79 = load i32, i32* %8, align 4
  %80 = add nsw i32 %79, 1
  store i32 %80, i32* %8, align 4
  br label %69

81:                                               ; preds = %69
  %82 = load i32, i32* %6, align 4
  store i32 %82, i32* %8, align 4
  br label %83

83:                                               ; preds = %105, %81
  %84 = load i32, i32* %8, align 4
  %85 = load i32, i32* %9, align 4
  %86 = icmp slt i32 %84, %85
  br i1 %86, label %87, label %108

87:                                               ; preds = %83
  %88 = getelementptr inbounds [100 x i8], [100 x i8]* %1, i64 0, i64 0
  %89 = load i32, i32* %8, align 4
  %90 = sext i32 %89 to i64
  %91 = getelementptr inbounds i8, i8* %88, i64 %90
  %92 = load i8, i8* %91, align 1
  %93 = getelementptr inbounds [100 x i8], [100 x i8]* %2, i64 0, i64 0
  %94 = load i32, i32* %8, align 4
  %95 = sext i32 %94 to i64
  %96 = getelementptr inbounds i8, i8* %93, i64 %95
  %97 = load i32, i32* %6, align 4
  %98 = sext i32 %97 to i64
  %99 = sub i64 0, %98
  %100 = getelementptr inbounds i8, i8* %96, i64 %99
  store i8 %92, i8* %100, align 1
  %101 = getelementptr inbounds [100 x i8], [100 x i8]* %1, i64 0, i64 0
  %102 = load i32, i32* %8, align 4
  %103 = sext i32 %102 to i64
  %104 = getelementptr inbounds i8, i8* %101, i64 %103
  store i8 0, i8* %104, align 1
  br label %105

105:                                              ; preds = %87
  %106 = load i32, i32* %8, align 4
  %107 = add nsw i32 %106, 1
  store i32 %107, i32* %8, align 4
  br label %83

108:                                              ; preds = %83
  %109 = getelementptr inbounds [100 x i8], [100 x i8]* %1, i64 0, i64 0
  %110 = getelementptr inbounds [100 x i8], [100 x i8]* %4, i64 0, i64 0
  %111 = call i8* @strcat(i8* %109, i8* %110) #6
  %112 = getelementptr inbounds [100 x i8], [100 x i8]* %1, i64 0, i64 0
  %113 = getelementptr inbounds [100 x i8], [100 x i8]* %2, i64 0, i64 0
  %114 = call i8* @strcat(i8* %112, i8* %113) #6
  %115 = getelementptr inbounds [100 x i8], [100 x i8]* %1, i64 0, i64 0
  %116 = call i64 @strlen(i8* %115) #5
  %117 = trunc i64 %116 to i32
  store i32 %117, i32* %9, align 4
  store i32 0, i32* %8, align 4
  br label %118

118:                                              ; preds = %129, %108
  %119 = load i32, i32* %8, align 4
  %120 = load i32, i32* %9, align 4
  %121 = load i32, i32* %6, align 4
  %122 = sub nsw i32 %120, %121
  %123 = icmp slt i32 %119, %122
  br i1 %123, label %124, label %132

124:                                              ; preds = %118
  %125 = getelementptr inbounds [100 x i8], [100 x i8]* %2, i64 0, i64 0
  %126 = load i32, i32* %8, align 4
  %127 = sext i32 %126 to i64
  %128 = getelementptr inbounds i8, i8* %125, i64 %127
  store i8 0, i8* %128, align 1
  br label %129

129:                                              ; preds = %124
  %130 = load i32, i32* %8, align 4
  %131 = add nsw i32 %130, 1
  store i32 %131, i32* %8, align 4
  br label %118

132:                                              ; preds = %118
  store i32 0, i32* %8, align 4
  br label %133

133:                                              ; preds = %142, %132
  %134 = load i32, i32* %8, align 4
  %135 = load i32, i32* %10, align 4
  %136 = icmp slt i32 %134, %135
  br i1 %136, label %137, label %145

137:                                              ; preds = %133
  %138 = getelementptr inbounds [100 x i8], [100 x i8]* %5, i64 0, i64 0
  %139 = load i32, i32* %8, align 4
  %140 = sext i32 %139 to i64
  %141 = getelementptr inbounds i8, i8* %138, i64 %140
  store i8 0, i8* %141, align 1
  br label %142

142:                                              ; preds = %137
  %143 = load i32, i32* %8, align 4
  %144 = add nsw i32 %143, 1
  store i32 %144, i32* %8, align 4
  br label %133

145:                                              ; preds = %133
  br label %160

146:                                              ; preds = %57
  store i32 0, i32* %8, align 4
  br label %147

147:                                              ; preds = %156, %146
  %148 = load i32, i32* %8, align 4
  %149 = load i32, i32* %10, align 4
  %150 = icmp slt i32 %148, %149
  br i1 %150, label %151, label %159

151:                                              ; preds = %147
  %152 = getelementptr inbounds [100 x i8], [100 x i8]* %5, i64 0, i64 0
  %153 = load i32, i32* %8, align 4
  %154 = sext i32 %153 to i64
  %155 = getelementptr inbounds i8, i8* %152, i64 %154
  store i8 0, i8* %155, align 1
  br label %156

156:                                              ; preds = %151
  %157 = load i32, i32* %8, align 4
  %158 = add nsw i32 %157, 1
  store i32 %158, i32* %8, align 4
  br label %147

159:                                              ; preds = %147
  br label %160

160:                                              ; preds = %159, %145
  br label %161

161:                                              ; preds = %160, %45
  br label %162

162:                                              ; preds = %161
  %163 = load i32, i32* %6, align 4
  %164 = add nsw i32 %163, 1
  store i32 %164, i32* %6, align 4
  br label %25

165:                                              ; preds = %25
  %166 = getelementptr inbounds [100 x i8], [100 x i8]* %1, i64 0, i64 0
  %167 = call i32 @puts(i8* %166)
  ret void
}

; Function Attrs: argmemonly nounwind willreturn
declare void @llvm.memset.p0i8.i64(i8* nocapture writeonly, i8, i64, i1 immarg) #1

declare dso_local i32 @gets(...) #2

; Function Attrs: nounwind readonly
declare dso_local i64 @strlen(i8*) #3

; Function Attrs: nounwind readonly
declare dso_local i32 @strcmp(i8*, i8*) #3

; Function Attrs: nounwind
declare dso_local i8* @strcat(i8*, i8*) #4

declare dso_local i32 @puts(i8*) #2


!llvm.module.flags = !{!0}
!llvm.ident = !{!1}

!0 = !{i32 1, !"wchar_size", i32 4}
!1 = !{!"clang version 10.0.0-4ubuntu1 "}
